; Function Attrs: mustprogress nounwind uwtable
define void @_ZN13sentencepiece23SentencePieceNormalizerD2Ev(ptr noundef nonnull align 8 captures(none) dereferenceable(24) initializes((0, 8)) %0) unnamed_addr #8 align 2 {
  store ptr getelementptr inbounds nuw inrange(-16, 96) (i8, ptr @_ZTVN13sentencepiece23SentencePieceNormalizerE, i64 16), ptr %0, align 8, !tbaa !20
  %2 = getelementptr inbounds nuw i8, ptr %0, i64 16
  %3 = load ptr, ptr %2, align 8, !tbaa !234
  %.not.i = icmp eq ptr %3, null
  br i1 %.not.i, label %_ZNSt10unique_ptrIN13sentencepiece10ModelProtoESt14default_deleteIS1_EED2Ev.exit, label %_ZNKSt14default_deleteIN13sentencepiece10ModelProtoEEclEPS1_.exit.i

_ZNKSt14default_deleteIN13sentencepiece10ModelProtoEEclEPS1_.exit.i: ; preds = %1
  tail call void @_ZN13sentencepiece10ModelProtoD1Ev(ptr noundef nonnull align 8 dereferenceable(104) %3) #26
  tail call void @_ZdlPvm(ptr noundef nonnull %3, i64 noundef 104) #27
  br label %_ZNSt10unique_ptrIN13sentencepiece10ModelProtoESt14default_deleteIS1_EED2Ev.exit

_ZNSt10unique_ptrIN13sentencepiece10ModelProtoESt14default_deleteIS1_EED2Ev.exit: ; preds = %1, %_ZNKSt14default_deleteIN13sentencepiece10ModelProtoEEclEPS1_.exit.i
  store ptr null, ptr %2, align 8, !tbaa !234
  %4 = getelementptr inbounds nuw i8, ptr %0, i64 8
  %5 = load ptr, ptr %4, align 8, !tbaa !236
  %.not.i1 = icmp eq ptr %5, null
  br i1 %.not.i1, label %_ZNSt10unique_ptrIN13sentencepiece10normalizer10NormalizerESt14default_deleteIS2_EED2Ev.exit, label %_ZNKSt14default_deleteIN13sentencepiece10normalizer10NormalizerEEclEPS2_.exit.i

_ZNKSt14default_deleteIN13sentencepiece10normalizer10NormalizerEEclEPS2_.exit.i: ; preds = %_ZNSt10unique_ptrIN13sentencepiece10ModelProtoESt14default_deleteIS1_EED2Ev.exit
  %6 = load ptr, ptr %5, align 8, !tbaa !20
  %7 = getelementptr inbounds nuw i8, ptr %6, i64 8
  %8 = load ptr, ptr %7, align 8
  tail call void %8(ptr noundef nonnull align 8 dereferenceable(56) %5) #26
  br label %_ZNSt10unique_ptrIN13sentencepiece10normalizer10NormalizerESt14default_deleteIS2_EED2Ev.exit

_ZNSt10unique_ptrIN13sentencepiece10normalizer10NormalizerESt14default_deleteIS2_EED2Ev.exit: ; preds = %_ZNSt10unique_ptrIN13sentencepiece10ModelProtoESt14default_deleteIS1_EED2Ev.exit, %_ZNKSt14default_deleteIN13sentencepiece10normalizer10NormalizerEEclEPS2_.exit.i
  store ptr null, ptr %4, align 8, !tbaa !236
  ret void
}